target datalayout = "e-m:e-p270:32:32-p271:32:32-p272:64:64-i64:64-i128:128-f80:128-n8:16:32:64-S128"
target triple = "x86_64-pc-linux-gnu"

%struct.Vec_Wrd_t_ = type { i32, i32, ptr }

@.str.4 = private unnamed_addr constant [21 x i8] c"%2d : %6d  %6.2f %%\0A\00", align 1

; Function Attrs: inlinehint nounwind uwtable
define internal i64 @Vec_WrdEntry(ptr noundef %0, i32 noundef %1) #2 {
  %3 = alloca ptr, align 8
  %4 = alloca i32, align 4
  store ptr %0, ptr %3, align 8, !tbaa !7
  store i32 %1, ptr %4, align 4, !tbaa !3
  %5 = load ptr, ptr %3, align 8, !tbaa !7
  %6 = getelementptr inbounds nuw %struct.Vec_Wrd_t_, ptr %5, i32 0, i32 2
  %7 = load ptr, ptr %6, align 8, !tbaa !16
  %8 = load i32, ptr %4, align 4, !tbaa !3
  %9 = sext i32 %8 to i64
  %10 = getelementptr inbounds i64, ptr %7, i64 %9
  %11 = load i64, ptr %10, align 8, !tbaa !17
  ret i64 %11
}

; Function Attrs: inlinehint nounwind uwtable
define internal i32 @Vec_WrdSize(ptr noundef %0) #2 {
  %2 = alloca ptr, align 8
  store ptr %0, ptr %2, align 8, !tbaa !7
  %3 = load ptr, ptr %2, align 8, !tbaa !7
  %4 = getelementptr inbounds nuw %struct.Vec_Wrd_t_, ptr %3, i32 0, i32 1
  %5 = load i32, ptr %4, align 4, !tbaa !12
  ret i32 %5
}

; Function Attrs: nounwind uwtable
define void @Abc_SuppGenProfile(ptr noundef %0, i32 noundef %1, ptr noundef %2) #0 {
  %4 = alloca ptr, align 8
  %5 = alloca i32, align 4
  %6 = alloca ptr, align 8
  %7 = alloca i64, align 8
  %8 = alloca i32, align 4
  %9 = alloca i32, align 4
  %10 = alloca i32, align 4
  store ptr %0, ptr %4, align 8, !tbaa !7
  store i32 %1, ptr %5, align 4, !tbaa !3
  store ptr %2, ptr %6, align 8, !tbaa !25
  call void @llvm.lifetime.start.p0(i64 8, ptr %7) #13
  call void @llvm.lifetime.start.p0(i64 4, ptr %8) #13
  call void @llvm.lifetime.start.p0(i64 4, ptr %9) #13
  call void @llvm.lifetime.start.p0(i64 4, ptr %10) #13
  store i32 0, ptr %8, align 4, !tbaa !3
  br label %11

11:                                               ; preds = %54, %3
  %12 = load i32, ptr %8, align 4, !tbaa !3
  %13 = load ptr, ptr %4, align 8, !tbaa !7
  %14 = call i32 @Vec_WrdSize(ptr noundef %13)
  %15 = icmp slt i32 %12, %14
  br i1 %15, label %16, label %20

16:                                               ; preds = %11
  %17 = load ptr, ptr %4, align 8, !tbaa !7
  %18 = load i32, ptr %8, align 4, !tbaa !3
  %19 = call i64 @Vec_WrdEntry(ptr noundef %17, i32 noundef %18)
  store i64 %19, ptr %7, align 8, !tbaa !17
  br label %20

20:                                               ; preds = %16, %11
  %21 = phi i1 [ false, %11 ], [ true, %16 ]
  br i1 %21, label %22, label %57

22:                                               ; preds = %20
  %23 = load i64, ptr %7, align 8, !tbaa !17
  %24 = load i32, ptr %5, align 4, !tbaa !3
  %25 = zext i32 %24 to i64
  %26 = lshr i64 %23, %25
  %27 = and i64 %26, 1
  %28 = trunc i64 %27 to i32
  store i32 %28, ptr %10, align 4, !tbaa !3
  store i32 0, ptr %9, align 4, !tbaa !3
  br label %29

29:                                               ; preds = %50, %22
  %30 = load i32, ptr %9, align 4, !tbaa !3
  %31 = load i32, ptr %5, align 4, !tbaa !3
  %32 = icmp slt i32 %30, %31
  br i1 %32, label %33, label %53

33:                                               ; preds = %29
  %34 = load i64, ptr %7, align 8, !tbaa !17
  %35 = load i32, ptr %9, align 4, !tbaa !3
  %36 = zext i32 %35 to i64
  %37 = lshr i64 %34, %36
  %38 = and i64 %37, 1
  %39 = load i32, ptr %10, align 4, !tbaa !3
  %40 = sext i32 %39 to i64
  %41 = xor i64 %38, %40
  %42 = load ptr, ptr %6, align 8, !tbaa !25
  %43 = load i32, ptr %9, align 4, !tbaa !3
  %44 = sext i32 %43 to i64
  %45 = getelementptr inbounds i32, ptr %42, i64 %44
  %46 = load i32, ptr %45, align 4, !tbaa !3
  %47 = sext i32 %46 to i64
  %48 = add i64 %47, %41
  %49 = trunc i64 %48 to i32
  store i32 %49, ptr %45, align 4, !tbaa !3
  br label %50

50:                                               ; preds = %33
  %51 = load i32, ptr %9, align 4, !tbaa !3
  %52 = add nsw i32 %51, 1
  store i32 %52, ptr %9, align 4, !tbaa !3
  br label %29, !llvm.loop !32

53:                                               ; preds = %29
  br label %54

54:                                               ; preds = %53
  %55 = load i32, ptr %8, align 4, !tbaa !3
  %56 = add nsw i32 %55, 1
  store i32 %56, ptr %8, align 4, !tbaa !3
  br label %11, !llvm.loop !33

57:                                               ; preds = %20
  call void @llvm.lifetime.end.p0(i64 4, ptr %10) #13
  call void @llvm.lifetime.end.p0(i64 4, ptr %9) #13
  call void @llvm.lifetime.end.p0(i64 4, ptr %8) #13
  call void @llvm.lifetime.end.p0(i64 8, ptr %7) #13
  ret void
}

; Function Attrs: nounwind uwtable
define void @Abc_SuppPrintProfile(ptr noundef %0, i32 noundef %1) #0 {
  %3 = alloca ptr, align 8
  %4 = alloca i32, align 4
  %5 = alloca i32, align 4
  %6 = alloca [64 x i32], align 16
  store ptr %0, ptr %3, align 8, !tbaa !7
  store i32 %1, ptr %4, align 4, !tbaa !3
  call void @llvm.lifetime.start.p0(i64 4, ptr %5) #13
  call void @llvm.lifetime.start.p0(i64 256, ptr %6) #13
  call void @llvm.memset.p0.i64(ptr align 16 %6, i8 0, i64 256, i1 false)
  %7 = load ptr, ptr %3, align 8, !tbaa !7
  %8 = load i32, ptr %4, align 4, !tbaa !3
  %9 = getelementptr inbounds [64 x i32], ptr %6, i64 0, i64 0
  call void @Abc_SuppGenProfile(ptr noundef %7, i32 noundef %8, ptr noundef %9)
  store i32 0, ptr %5, align 4, !tbaa !3
  br label %10

10:                                               ; preds = %31, %2
  %11 = load i32, ptr %5, align 4, !tbaa !3
  %12 = load i32, ptr %4, align 4, !tbaa !3
  %13 = icmp slt i32 %11, %12
  br i1 %13, label %14, label %34

14:                                               ; preds = %10
  %15 = load i32, ptr %5, align 4, !tbaa !3
  %16 = load i32, ptr %5, align 4, !tbaa !3
  %17 = sext i32 %16 to i64
  %18 = getelementptr inbounds [64 x i32], ptr %6, i64 0, i64 %17
  %19 = load i32, ptr %18, align 4, !tbaa !3
  %20 = load i32, ptr %5, align 4, !tbaa !3
  %21 = sext i32 %20 to i64
  %22 = getelementptr inbounds [64 x i32], ptr %6, i64 0, i64 %21
  %23 = load i32, ptr %22, align 4, !tbaa !3
  %24 = sitofp i32 %23 to double
  %25 = fmul double 1.000000e+02, %24
  %26 = load ptr, ptr %3, align 8, !tbaa !7
  %27 = call i32 @Vec_WrdSize(ptr noundef %26)
  %28 = sitofp i32 %27 to double
  %29 = fdiv double %25, %28
  %30 = call i32 (ptr, ...) @printf(ptr noundef @.str.4, i32 noundef %15, i32 noundef %19, double noundef %29)
  br label %31

31:                                               ; preds = %14
  %32 = load i32, ptr %5, align 4, !tbaa !3
  %33 = add nsw i32 %32, 1
  store i32 %33, ptr %5, align 4, !tbaa !3
  br label %10, !llvm.loop !34

34:                                               ; preds = %10
  call void @llvm.lifetime.end.p0(i64 256, ptr %6) #13
  call void @llvm.lifetime.end.p0(i64 4, ptr %5) #13
  ret void
}