; Function Attrs: nofree nounwind uwtable
define void @Abc_SuppPrintProfile(ptr noundef readonly captures(none) %0, i32 noundef %1) local_unnamed_addr #6 {
  %3 = alloca [64 x i32], align 16
  call void @llvm.lifetime.start.p0(i64 256, ptr nonnull %3) #24
  call void @llvm.memset.p0.i64(ptr noundef nonnull align 16 dereferenceable(256) %3, i8 0, i64 256, i1 false)
  %4 = getelementptr i8, ptr %0, i64 4
  %.val17.i = load i32, ptr %4, align 4, !tbaa !3
  %5 = icmp sgt i32 %.val17.i, 0
  br i1 %5, label %.lr.ph20.i, label %Abc_SuppGenProfile.exit

.lr.ph20.i:                                       ; preds = %2
  %6 = getelementptr i8, ptr %0, i64 8
  %.val15.i = load ptr, ptr %6, align 8, !tbaa !11
  %7 = zext i32 %1 to i64
  %8 = icmp sgt i32 %1, 0
  br i1 %8, label %.lr.ph.us.i.preheader, label %._crit_edge

.lr.ph.us.i.preheader:                            ; preds = %.lr.ph20.i
  %9 = zext nneg i32 %.val17.i to i64
  br label %.lr.ph.us.i

.lr.ph.us.i:                                      ; preds = %.lr.ph.us.i.preheader, %._crit_edge.us.i
  %indvars.iv23.i = phi i64 [ %indvars.iv.next24.i, %._crit_edge.us.i ], [ 0, %.lr.ph.us.i.preheader ]
  %10 = getelementptr inbounds nuw i64, ptr %.val15.i, i64 %indvars.iv23.i
  %11 = load i64, ptr %10, align 8, !tbaa !12
  %12 = lshr i64 %11, %7
  br label %13

13:                                               ; preds = %13, %.lr.ph.us.i
  %indvars.iv.i = phi i64 [ 0, %.lr.ph.us.i ], [ %indvars.iv.next.i, %13 ]
  %14 = lshr i64 %11, %indvars.iv.i
  %15 = xor i64 %14, %12
  %16 = getelementptr inbounds nuw i32, ptr %3, i64 %indvars.iv.i
  %17 = load i32, ptr %16, align 4, !tbaa !22
  %18 = trunc i64 %15 to i32
  %19 = and i32 %18, 1
  %20 = add i32 %19, %17
  store i32 %20, ptr %16, align 4, !tbaa !22
  %indvars.iv.next.i = add nuw nsw i64 %indvars.iv.i, 1
  %exitcond.not.i = icmp eq i64 %indvars.iv.next.i, %7
  br i1 %exitcond.not.i, label %._crit_edge.us.i, label %13, !llvm.loop !27

._crit_edge.us.i:                                 ; preds = %13
  %indvars.iv.next24.i = add nuw nsw i64 %indvars.iv23.i, 1
  %exitcond.not = icmp eq i64 %indvars.iv.next24.i, %9
  br i1 %exitcond.not, label %Abc_SuppGenProfile.exit, label %.lr.ph.us.i, !llvm.loop !28

Abc_SuppGenProfile.exit:                          ; preds = %._crit_edge.us.i, %2
  %21 = icmp sgt i32 %1, 0
  br i1 %21, label %.lr.ph.preheader, label %._crit_edge

.lr.ph.preheader:                                 ; preds = %Abc_SuppGenProfile.exit
  %wide.trip.count = zext nneg i32 %1 to i64
  br label %.lr.ph

.lr.ph:                                           ; preds = %.lr.ph.preheader, %.lr.ph
  %indvars.iv = phi i64 [ 0, %.lr.ph.preheader ], [ %indvars.iv.next, %.lr.ph ]
  %22 = getelementptr inbounds nuw [64 x i32], ptr %3, i64 0, i64 %indvars.iv
  %23 = load i32, ptr %22, align 4, !tbaa !22
  %24 = sitofp i32 %23 to double
  %25 = fmul double %24, 1.000000e+02
  %.val = load i32, ptr %4, align 4, !tbaa !3
  %26 = sitofp i32 %.val to double
  %27 = fdiv double %25, %26
  %28 = trunc nuw nsw i64 %indvars.iv to i32
  %29 = tail call i32 (ptr, ...) @printf(ptr noundef nonnull dereferenceable(1) @.str.4, i32 noundef %28, i32 noundef %23, double noundef %27)
  %indvars.iv.next = add nuw nsw i64 %indvars.iv, 1
  %exitcond10.not = icmp eq i64 %indvars.iv.next, %wide.trip.count
  br i1 %exitcond10.not, label %._crit_edge, label %.lr.ph, !llvm.loop !29

._crit_edge:                                      ; preds = %.lr.ph, %.lr.ph20.i, %Abc_SuppGenProfile.exit
  call void @llvm.lifetime.end.p0(i64 256, ptr nonnull %3) #24
  ret void
}